target datalayout = "e-m:e-p270:32:32-p271:32:32-p272:64:64-i64:64-i128:128-f80:128-n8:16:32:64-S128"
target triple = "x86_64-pc-linux-gnu"

%struct.Amap_Lib_t_ = type { ptr, ptr, ptr, ptr, ptr, ptr, ptr, ptr, ptr, i32, i32, i32, ptr, i32, i32, ptr, ptr, ptr, ptr, ptr, ptr, i32 }
%struct.Vec_Ptr_t_ = type { i32, i32, ptr }
%struct.Vec_Int_t_ = type { i32, i32, ptr }
%struct.Vec_Vec_t_ = type { i32, i32, ptr }

; Function Attrs: nounwind uwtable
define internal ptr @Vec_VecEntry(ptr noundef %0, i32 noundef %1) #0 {
  %3 = alloca ptr, align 8
  %4 = alloca i32, align 4
  store ptr %0, ptr %3, align 8
  store i32 %1, ptr %4, align 4
  %5 = load ptr, ptr %3, align 8
  %6 = getelementptr inbounds %struct.Vec_Vec_t_, ptr %5, i32 0, i32 2
  %7 = load ptr, ptr %6, align 8
  %8 = load i32, ptr %4, align 4
  %9 = sext i32 %8 to i64
  %10 = getelementptr inbounds ptr, ptr %7, i64 %9
  %11 = load ptr, ptr %10, align 8
  ret ptr %11
}

; Function Attrs: nounwind uwtable
define internal i32 @Vec_VecSize(ptr noundef %0) #0 {
  %2 = alloca ptr, align 8
  store ptr %0, ptr %2, align 8
  %3 = load ptr, ptr %2, align 8
  %4 = getelementptr inbounds %struct.Vec_Vec_t_, ptr %3, i32 0, i32 1
  %5 = load i32, ptr %4, align 4
  ret i32 %5
}

; Function Attrs: nounwind uwtable
define internal void @Vec_IntFree(ptr noundef %0) #0 {
  %2 = alloca ptr, align 8
  store ptr %0, ptr %2, align 8
  %3 = load ptr, ptr %2, align 8
  %4 = getelementptr inbounds %struct.Vec_Int_t_, ptr %3, i32 0, i32 2
  %5 = load ptr, ptr %4, align 8
  %6 = icmp ne ptr %5, null
  br i1 %6, label %7, label %13

7:                                                ; preds = %1
  %8 = load ptr, ptr %2, align 8
  %9 = getelementptr inbounds %struct.Vec_Int_t_, ptr %8, i32 0, i32 2
  %10 = load ptr, ptr %9, align 8
  call void @free(ptr noundef %10) #10
  %11 = load ptr, ptr %2, align 8
  %12 = getelementptr inbounds %struct.Vec_Int_t_, ptr %11, i32 0, i32 2
  store ptr null, ptr %12, align 8
  br label %14

13:                                               ; preds = %1
  br label %14

14:                                               ; preds = %13, %7
  %15 = load ptr, ptr %2, align 8
  %16 = icmp ne ptr %15, null
  br i1 %16, label %17, label %19

17:                                               ; preds = %14
  %18 = load ptr, ptr %2, align 8
  call void @free(ptr noundef %18) #10
  store ptr null, ptr %2, align 8
  br label %20

19:                                               ; preds = %14
  br label %20

20:                                               ; preds = %19, %17
  ret void
}

; Function Attrs: nounwind uwtable
define internal void @Vec_VecFree(ptr noundef %0) #0 {
  %2 = alloca ptr, align 8
  %3 = alloca ptr, align 8
  %4 = alloca i32, align 4
  store ptr %0, ptr %2, align 8
  store i32 0, ptr %4, align 4
  br label %5

5:                                                ; preds = %22, %1
  %6 = load i32, ptr %4, align 4
  %7 = load ptr, ptr %2, align 8
  %8 = call i32 @Vec_VecSize(ptr noundef %7)
  %9 = icmp slt i32 %6, %8
  br i1 %9, label %10, label %14

10:                                               ; preds = %5
  %11 = load ptr, ptr %2, align 8
  %12 = load i32, ptr %4, align 4
  %13 = call ptr @Vec_VecEntry(ptr noundef %11, i32 noundef %12)
  store ptr %13, ptr %3, align 8
  br label %14

14:                                               ; preds = %10, %5
  %15 = phi i1 [ false, %5 ], [ true, %10 ]
  br i1 %15, label %16, label %25

16:                                               ; preds = %14
  %17 = load ptr, ptr %3, align 8
  %18 = icmp ne ptr %17, null
  br i1 %18, label %19, label %21

19:                                               ; preds = %16
  %20 = load ptr, ptr %3, align 8
  call void @Vec_PtrFree(ptr noundef %20)
  br label %21

21:                                               ; preds = %19, %16
  br label %22

22:                                               ; preds = %21
  %23 = load i32, ptr %4, align 4
  %24 = add nsw i32 %23, 1
  store i32 %24, ptr %4, align 4
  br label %5, !llvm.loop !4

25:                                               ; preds = %14
  %26 = load ptr, ptr %2, align 8
  call void @Vec_PtrFree(ptr noundef %26)
  ret void
}

; Function Attrs: nounwind uwtable
define internal void @Vec_PtrFree(ptr noundef %0) #0 {
  %2 = alloca ptr, align 8
  store ptr %0, ptr %2, align 8
  %3 = load ptr, ptr %2, align 8
  %4 = getelementptr inbounds %struct.Vec_Ptr_t_, ptr %3, i32 0, i32 2
  %5 = load ptr, ptr %4, align 8
  %6 = icmp ne ptr %5, null
  br i1 %6, label %7, label %13

7:                                                ; preds = %1
  %8 = load ptr, ptr %2, align 8
  %9 = getelementptr inbounds %struct.Vec_Ptr_t_, ptr %8, i32 0, i32 2
  %10 = load ptr, ptr %9, align 8
  call void @free(ptr noundef %10) #10
  %11 = load ptr, ptr %2, align 8
  %12 = getelementptr inbounds %struct.Vec_Ptr_t_, ptr %11, i32 0, i32 2
  store ptr null, ptr %12, align 8
  br label %14

13:                                               ; preds = %1
  br label %14

14:                                               ; preds = %13, %7
  %15 = load ptr, ptr %2, align 8
  %16 = icmp ne ptr %15, null
  br i1 %16, label %17, label %19

17:                                               ; preds = %14
  %18 = load ptr, ptr %2, align 8
  call void @free(ptr noundef %18) #10
  store ptr null, ptr %2, align 8
  br label %20

19:                                               ; preds = %14
  br label %20

20:                                               ; preds = %19, %17
  ret void
}

; Function Attrs: nounwind uwtable
define void @Amap_LibFree(ptr noundef %0) #0 {
  %2 = alloca ptr, align 8
  store ptr %0, ptr %2, align 8
  %3 = load ptr, ptr %2, align 8
  %4 = icmp eq ptr %3, null
  br i1 %4, label %5, label %6

5:                                                ; preds = %1
  br label %121

6:                                                ; preds = %1
  %7 = load ptr, ptr %2, align 8
  %8 = getelementptr inbounds %struct.Amap_Lib_t_, ptr %7, i32 0, i32 3
  %9 = load ptr, ptr %8, align 8
  %10 = icmp ne ptr %9, null
  br i1 %10, label %11, label %15

11:                                               ; preds = %6
  %12 = load ptr, ptr %2, align 8
  %13 = getelementptr inbounds %struct.Amap_Lib_t_, ptr %12, i32 0, i32 3
  %14 = load ptr, ptr %13, align 8
  call void @Vec_PtrFree(ptr noundef %14)
  br label %15

15:                                               ; preds = %11, %6
  %16 = load ptr, ptr %2, align 8
  %17 = getelementptr inbounds %struct.Amap_Lib_t_, ptr %16, i32 0, i32 2
  %18 = load ptr, ptr %17, align 8
  %19 = icmp ne ptr %18, null
  br i1 %19, label %20, label %24

20:                                               ; preds = %15
  %21 = load ptr, ptr %2, align 8
  %22 = getelementptr inbounds %struct.Amap_Lib_t_, ptr %21, i32 0, i32 2
  %23 = load ptr, ptr %22, align 8
  call void @Vec_PtrFree(ptr noundef %23)
  br label %24

24:                                               ; preds = %20, %15
  %25 = load ptr, ptr %2, align 8
  %26 = getelementptr inbounds %struct.Amap_Lib_t_, ptr %25, i32 0, i32 1
  %27 = load ptr, ptr %26, align 8
  %28 = icmp ne ptr %27, null
  br i1 %28, label %29, label %33

29:                                               ; preds = %24
  %30 = load ptr, ptr %2, align 8
  %31 = getelementptr inbounds %struct.Amap_Lib_t_, ptr %30, i32 0, i32 1
  %32 = load ptr, ptr %31, align 8
  call void @Vec_PtrFree(ptr noundef %32)
  br label %33

33:                                               ; preds = %29, %24
  %34 = load ptr, ptr %2, align 8
  %35 = getelementptr inbounds %struct.Amap_Lib_t_, ptr %34, i32 0, i32 15
  %36 = load ptr, ptr %35, align 8
  %37 = icmp ne ptr %36, null
  br i1 %37, label %38, label %42

38:                                               ; preds = %33
  %39 = load ptr, ptr %2, align 8
  %40 = getelementptr inbounds %struct.Amap_Lib_t_, ptr %39, i32 0, i32 15
  %41 = load ptr, ptr %40, align 8
  call void @Vec_VecFree(ptr noundef %41)
  br label %42

42:                                               ; preds = %38, %33
  %43 = load ptr, ptr %2, align 8
  %44 = getelementptr inbounds %struct.Amap_Lib_t_, ptr %43, i32 0, i32 16
  %45 = load ptr, ptr %44, align 8
  %46 = icmp ne ptr %45, null
  br i1 %46, label %47, label %51

47:                                               ; preds = %42
  %48 = load ptr, ptr %2, align 8
  %49 = getelementptr inbounds %struct.Amap_Lib_t_, ptr %48, i32 0, i32 16
  %50 = load ptr, ptr %49, align 8
  call void @Vec_VecFree(ptr noundef %50)
  br label %51

51:                                               ; preds = %47, %42
  %52 = load ptr, ptr %2, align 8
  %53 = getelementptr inbounds %struct.Amap_Lib_t_, ptr %52, i32 0, i32 17
  %54 = load ptr, ptr %53, align 8
  %55 = icmp ne ptr %54, null
  br i1 %55, label %56, label %60

56:                                               ; preds = %51
  %57 = load ptr, ptr %2, align 8
  %58 = getelementptr inbounds %struct.Amap_Lib_t_, ptr %57, i32 0, i32 17
  %59 = load ptr, ptr %58, align 8
  call void @Vec_IntFree(ptr noundef %59)
  br label %60

60:                                               ; preds = %56, %51
  %61 = load ptr, ptr %2, align 8
  %62 = getelementptr inbounds %struct.Amap_Lib_t_, ptr %61, i32 0, i32 8
  %63 = load ptr, ptr %62, align 8
  call void @Aig_MmFlexStop(ptr noundef %63, i32 noundef 0)
  %64 = load ptr, ptr %2, align 8
  %65 = getelementptr inbounds %struct.Amap_Lib_t_, ptr %64, i32 0, i32 20
  %66 = load ptr, ptr %65, align 8
  call void @Aig_MmFlexStop(ptr noundef %66, i32 noundef 0)
  %67 = load ptr, ptr %2, align 8
  %68 = getelementptr inbounds %struct.Amap_Lib_t_, ptr %67, i32 0, i32 18
  %69 = load ptr, ptr %68, align 8
  %70 = icmp ne ptr %69, null
  br i1 %70, label %71, label %77

71:                                               ; preds = %60
  %72 = load ptr, ptr %2, align 8
  %73 = getelementptr inbounds %struct.Amap_Lib_t_, ptr %72, i32 0, i32 18
  %74 = load ptr, ptr %73, align 8
  call void @free(ptr noundef %74) #10
  %75 = load ptr, ptr %2, align 8
  %76 = getelementptr inbounds %struct.Amap_Lib_t_, ptr %75, i32 0, i32 18
  store ptr null, ptr %76, align 8
  br label %78

77:                                               ; preds = %60
  br label %78

78:                                               ; preds = %77, %71
  %79 = load ptr, ptr %2, align 8
  %80 = getelementptr inbounds %struct.Amap_Lib_t_, ptr %79, i32 0, i32 19
  %81 = load ptr, ptr %80, align 8
  %82 = icmp ne ptr %81, null
  br i1 %82, label %83, label %89

83:                                               ; preds = %78
  %84 = load ptr, ptr %2, align 8
  %85 = getelementptr inbounds %struct.Amap_Lib_t_, ptr %84, i32 0, i32 19
  %86 = load ptr, ptr %85, align 8
  call void @free(ptr noundef %86) #10
  %87 = load ptr, ptr %2, align 8
  %88 = getelementptr inbounds %struct.Amap_Lib_t_, ptr %87, i32 0, i32 19
  store ptr null, ptr %88, align 8
  br label %90

89:                                               ; preds = %78
  br label %90

90:                                               ; preds = %89, %83
  %91 = load ptr, ptr %2, align 8
  %92 = getelementptr inbounds %struct.Amap_Lib_t_, ptr %91, i32 0, i32 12
  %93 = load ptr, ptr %92, align 8
  %94 = icmp ne ptr %93, null
  br i1 %94, label %95, label %101

95:                                               ; preds = %90
  %96 = load ptr, ptr %2, align 8
  %97 = getelementptr inbounds %struct.Amap_Lib_t_, ptr %96, i32 0, i32 12
  %98 = load ptr, ptr %97, align 8
  call void @free(ptr noundef %98) #10
  %99 = load ptr, ptr %2, align 8
  %100 = getelementptr inbounds %struct.Amap_Lib_t_, ptr %99, i32 0, i32 12
  store ptr null, ptr %100, align 8
  br label %102

101:                                              ; preds = %90
  br label %102

102:                                              ; preds = %101, %95
  %103 = load ptr, ptr %2, align 8
  %104 = getelementptr inbounds %struct.Amap_Lib_t_, ptr %103, i32 0, i32 0
  %105 = load ptr, ptr %104, align 8
  %106 = icmp ne ptr %105, null
  br i1 %106, label %107, label %113

107:                                              ; preds = %102
  %108 = load ptr, ptr %2, align 8
  %109 = getelementptr inbounds %struct.Amap_Lib_t_, ptr %108, i32 0, i32 0
  %110 = load ptr, ptr %109, align 8
  call void @free(ptr noundef %110) #10
  %111 = load ptr, ptr %2, align 8
  %112 = getelementptr inbounds %struct.Amap_Lib_t_, ptr %111, i32 0, i32 0
  store ptr null, ptr %112, align 8
  br label %114

113:                                              ; preds = %102
  br label %114

114:                                              ; preds = %113, %107
  %115 = load ptr, ptr %2, align 8
  %116 = icmp ne ptr %115, null
  br i1 %116, label %117, label %119

117:                                              ; preds = %114
  %118 = load ptr, ptr %2, align 8
  call void @free(ptr noundef %118) #10
  store ptr null, ptr %2, align 8
  br label %120

119:                                              ; preds = %114
  br label %120

120:                                              ; preds = %119, %117
  br label %121

121:                                              ; preds = %120, %5
  ret void
}