; Function Attrs: nounwind uwtable
define void @Amap_LibFree(ptr noundef %0) local_unnamed_addr #0 {
  %2 = icmp eq ptr %0, null
  br i1 %2, label %91, label %3

3:                                                ; preds = %1
  %4 = getelementptr inbounds nuw i8, ptr %0, i64 24
  %5 = load ptr, ptr %4, align 8
  %.not = icmp eq ptr %5, null
  br i1 %.not, label %10, label %6

6:                                                ; preds = %3
  %7 = getelementptr inbounds nuw i8, ptr %5, i64 8
  %8 = load ptr, ptr %7, align 8
  %.not.i = icmp eq ptr %8, null
  br i1 %.not.i, label %Vec_PtrFree.exit, label %9

9:                                                ; preds = %6
  tail call void @free(ptr noundef nonnull %8) #22
  br label %Vec_PtrFree.exit

Vec_PtrFree.exit:                                 ; preds = %6, %9
  tail call void @free(ptr noundef nonnull %5) #22
  br label %10

10:                                               ; preds = %Vec_PtrFree.exit, %3
  %11 = getelementptr inbounds nuw i8, ptr %0, i64 16
  %12 = load ptr, ptr %11, align 8
  %.not39 = icmp eq ptr %12, null
  br i1 %.not39, label %17, label %13

13:                                               ; preds = %10
  %14 = getelementptr inbounds nuw i8, ptr %12, i64 8
  %15 = load ptr, ptr %14, align 8
  %.not.i48 = icmp eq ptr %15, null
  br i1 %.not.i48, label %Vec_PtrFree.exit49, label %16

16:                                               ; preds = %13
  tail call void @free(ptr noundef nonnull %15) #22
  br label %Vec_PtrFree.exit49

Vec_PtrFree.exit49:                               ; preds = %13, %16
  tail call void @free(ptr noundef nonnull %12) #22
  br label %17

17:                                               ; preds = %Vec_PtrFree.exit49, %10
  %18 = getelementptr inbounds nuw i8, ptr %0, i64 8
  %19 = load ptr, ptr %18, align 8
  %.not40 = icmp eq ptr %19, null
  br i1 %.not40, label %24, label %20

20:                                               ; preds = %17
  %21 = getelementptr inbounds nuw i8, ptr %19, i64 8
  %22 = load ptr, ptr %21, align 8
  %.not.i50 = icmp eq ptr %22, null
  br i1 %.not.i50, label %Vec_PtrFree.exit51, label %23

23:                                               ; preds = %20
  tail call void @free(ptr noundef nonnull %22) #22
  br label %Vec_PtrFree.exit51

Vec_PtrFree.exit51:                               ; preds = %20, %23
  tail call void @free(ptr noundef nonnull %19) #22
  br label %24

24:                                               ; preds = %Vec_PtrFree.exit51, %17
  %25 = getelementptr inbounds nuw i8, ptr %0, i64 104
  %26 = load ptr, ptr %25, align 8
  %.not41 = icmp eq ptr %26, null
  br i1 %.not41, label %44, label %27

27:                                               ; preds = %24
  %28 = getelementptr i8, ptr %26, i64 4
  %.val11.i = load i32, ptr %28, align 4
  %29 = icmp sgt i32 %.val11.i, 0
  br i1 %29, label %.lr.ph.i, label %.critedge.i

.lr.ph.i:                                         ; preds = %27
  %30 = getelementptr i8, ptr %26, i64 8
  br label %31

31:                                               ; preds = %38, %.lr.ph.i
  %.val14.i = phi i32 [ %.val11.i, %.lr.ph.i ], [ %.val.i, %38 ]
  %indvars.iv.i = phi i64 [ 0, %.lr.ph.i ], [ %indvars.iv.next.i, %38 ]
  %.val8.i = load ptr, ptr %30, align 8
  %32 = getelementptr inbounds nuw ptr, ptr %.val8.i, i64 %indvars.iv.i
  %33 = load ptr, ptr %32, align 8
  %.not.i52 = icmp eq ptr %33, null
  br i1 %.not.i52, label %38, label %34

34:                                               ; preds = %31
  %35 = getelementptr inbounds nuw i8, ptr %33, i64 8
  %36 = load ptr, ptr %35, align 8
  %.not.i.i = icmp eq ptr %36, null
  br i1 %.not.i.i, label %Vec_PtrFree.exit.i, label %37

37:                                               ; preds = %34
  tail call void @free(ptr noundef nonnull %36) #22
  br label %Vec_PtrFree.exit.i

Vec_PtrFree.exit.i:                               ; preds = %37, %34
  tail call void @free(ptr noundef nonnull %33) #22
  %.val.pre.i = load i32, ptr %28, align 4
  br label %38

38:                                               ; preds = %Vec_PtrFree.exit.i, %31
  %.val.i = phi i32 [ %.val14.i, %31 ], [ %.val.pre.i, %Vec_PtrFree.exit.i ]
  %indvars.iv.next.i = add nuw nsw i64 %indvars.iv.i, 1
  %39 = sext i32 %.val.i to i64
  %40 = icmp slt i64 %indvars.iv.next.i, %39
  br i1 %40, label %31, label %.critedge.i, !llvm.loop !4

.critedge.i:                                      ; preds = %38, %27
  %41 = getelementptr inbounds nuw i8, ptr %26, i64 8
  %42 = load ptr, ptr %41, align 8
  %.not.i9.i = icmp eq ptr %42, null
  br i1 %.not.i9.i, label %Vec_VecFree.exit, label %43

43:                                               ; preds = %.critedge.i
  tail call void @free(ptr noundef nonnull %42) #22
  br label %Vec_VecFree.exit

Vec_VecFree.exit:                                 ; preds = %.critedge.i, %43
  tail call void @free(ptr noundef nonnull %26) #22
  br label %44

44:                                               ; preds = %Vec_VecFree.exit, %24
  %45 = getelementptr inbounds nuw i8, ptr %0, i64 112
  %46 = load ptr, ptr %45, align 8
  %.not42 = icmp eq ptr %46, null
  br i1 %.not42, label %64, label %47

47:                                               ; preds = %44
  %48 = getelementptr i8, ptr %46, i64 4
  %.val11.i53 = load i32, ptr %48, align 4
  %49 = icmp sgt i32 %.val11.i53, 0
  br i1 %49, label %.lr.ph.i56, label %.critedge.i54

.lr.ph.i56:                                       ; preds = %47
  %50 = getelementptr i8, ptr %46, i64 8
  br label %51

51:                                               ; preds = %58, %.lr.ph.i56
  %.val14.i57 = phi i32 [ %.val11.i53, %.lr.ph.i56 ], [ %.val.i64, %58 ]
  %indvars.iv.i58 = phi i64 [ 0, %.lr.ph.i56 ], [ %indvars.iv.next.i65, %58 ]
  %.val8.i59 = load ptr, ptr %50, align 8
  %52 = getelementptr inbounds nuw ptr, ptr %.val8.i59, i64 %indvars.iv.i58
  %53 = load ptr, ptr %52, align 8
  %.not.i60 = icmp eq ptr %53, null
  br i1 %.not.i60, label %58, label %54

54:                                               ; preds = %51
  %55 = getelementptr inbounds nuw i8, ptr %53, i64 8
  %56 = load ptr, ptr %55, align 8
  %.not.i.i61 = icmp eq ptr %56, null
  br i1 %.not.i.i61, label %Vec_PtrFree.exit.i62, label %57

57:                                               ; preds = %54
  tail call void @free(ptr noundef nonnull %56) #22
  br label %Vec_PtrFree.exit.i62

Vec_PtrFree.exit.i62:                             ; preds = %57, %54
  tail call void @free(ptr noundef nonnull %53) #22
  %.val.pre.i63 = load i32, ptr %48, align 4
  br label %58

58:                                               ; preds = %Vec_PtrFree.exit.i62, %51
  %.val.i64 = phi i32 [ %.val14.i57, %51 ], [ %.val.pre.i63, %Vec_PtrFree.exit.i62 ]
  %indvars.iv.next.i65 = add nuw nsw i64 %indvars.iv.i58, 1
  %59 = sext i32 %.val.i64 to i64
  %60 = icmp slt i64 %indvars.iv.next.i65, %59
  br i1 %60, label %51, label %.critedge.i54, !llvm.loop !4

.critedge.i54:                                    ; preds = %58, %47
  %61 = getelementptr inbounds nuw i8, ptr %46, i64 8
  %62 = load ptr, ptr %61, align 8
  %.not.i9.i55 = icmp eq ptr %62, null
  br i1 %.not.i9.i55, label %Vec_VecFree.exit66, label %63

63:                                               ; preds = %.critedge.i54
  tail call void @free(ptr noundef nonnull %62) #22
  br label %Vec_VecFree.exit66

Vec_VecFree.exit66:                               ; preds = %.critedge.i54, %63
  tail call void @free(ptr noundef nonnull %46) #22
  br label %64

64:                                               ; preds = %Vec_VecFree.exit66, %44
  %65 = getelementptr inbounds nuw i8, ptr %0, i64 120
  %66 = load ptr, ptr %65, align 8
  %.not43 = icmp eq ptr %66, null
  br i1 %.not43, label %71, label %67

67:                                               ; preds = %64
  %68 = getelementptr inbounds nuw i8, ptr %66, i64 8
  %69 = load ptr, ptr %68, align 8
  %.not.i67 = icmp eq ptr %69, null
  br i1 %.not.i67, label %Vec_IntFree.exit, label %70

70:                                               ; preds = %67
  tail call void @free(ptr noundef nonnull %69) #22
  br label %Vec_IntFree.exit

Vec_IntFree.exit:                                 ; preds = %67, %70
  tail call void @free(ptr noundef nonnull %66) #22
  br label %71

71:                                               ; preds = %Vec_IntFree.exit, %64
  %72 = getelementptr inbounds nuw i8, ptr %0, i64 64
  %73 = load ptr, ptr %72, align 8
  tail call void @Aig_MmFlexStop(ptr noundef %73, i32 noundef 0) #22
  %74 = getelementptr inbounds nuw i8, ptr %0, i64 144
  %75 = load ptr, ptr %74, align 8
  tail call void @Aig_MmFlexStop(ptr noundef %75, i32 noundef 0) #22
  %76 = getelementptr inbounds nuw i8, ptr %0, i64 128
  %77 = load ptr, ptr %76, align 8
  %.not44 = icmp eq ptr %77, null
  br i1 %.not44, label %79, label %78

78:                                               ; preds = %71
  tail call void @free(ptr noundef nonnull %77) #22
  store ptr null, ptr %76, align 8
  br label %79

79:                                               ; preds = %71, %78
  %80 = getelementptr inbounds nuw i8, ptr %0, i64 136
  %81 = load ptr, ptr %80, align 8
  %.not45 = icmp eq ptr %81, null
  br i1 %.not45, label %83, label %82

82:                                               ; preds = %79
  tail call void @free(ptr noundef nonnull %81) #22
  store ptr null, ptr %80, align 8
  br label %83

83:                                               ; preds = %79, %82
  %84 = getelementptr inbounds nuw i8, ptr %0, i64 88
  %85 = load ptr, ptr %84, align 8
  %.not46 = icmp eq ptr %85, null
  br i1 %.not46, label %87, label %86

86:                                               ; preds = %83
  tail call void @free(ptr noundef nonnull %85) #22
  store ptr null, ptr %84, align 8
  br label %87

87:                                               ; preds = %83, %86
  %88 = load ptr, ptr %0, align 8
  %.not47 = icmp eq ptr %88, null
  br i1 %.not47, label %90, label %89

89:                                               ; preds = %87
  tail call void @free(ptr noundef nonnull %88) #22
  br label %90

90:                                               ; preds = %89, %87
  tail call void @free(ptr noundef nonnull %0) #22
  br label %91

91:                                               ; preds = %90, %1
  ret void
}